; Function Attrs: nounwind uwtable
define internal fastcc range(i32 0, 2) i32 @wchar_to_dict(ptr noundef nonnull %0, ptr noundef %1, ptr noundef %2) unnamed_addr #0 {
  %.not = icmp eq ptr %2, null
  br i1 %.not, label %8, label %4

4:                                                ; preds = %3
  %5 = load i32, ptr %2, align 4, !tbaa !12
  %.not12 = icmp eq i32 %5, 0
  br i1 %.not12, label %8, label %6

6:                                                ; preds = %4
  %7 = tail call ptr @PyUnicode_FromWideChar(ptr noundef nonnull %2, i64 noundef -1) #13
  %.not13 = icmp eq ptr %7, null
  br i1 %.not13, label %Py_DECREF.exit, label %_Py_NewRef.exit

8:                                                ; preds = %4, %3
  %9 = load i32, ptr @_Py_NoneStruct, align 8, !tbaa !16
  %10 = icmp slt i32 %9, 0
  br i1 %10, label %_Py_NewRef.exit, label %11

11:                                               ; preds = %8
  %12 = add nuw i32 %9, 1
  store i32 %12, ptr @_Py_NoneStruct, align 8, !tbaa !16
  br label %_Py_NewRef.exit

_Py_NewRef.exit:                                  ; preds = %11, %8, %6
  %.09 = phi ptr [ %7, %6 ], [ @_Py_NoneStruct, %8 ], [ @_Py_NoneStruct, %11 ]
  %13 = tail call i32 @PyDict_SetItemString(ptr noundef nonnull %0, ptr noundef %1, ptr noundef nonnull %.09) #13
  %14 = icmp eq i32 %13, 0
  %15 = load i32, ptr %.09, align 8, !tbaa !16
  %.not.i = icmp sgt i32 %15, -1
  br i1 %.not.i, label %16, label %Py_DECREF.exit

16:                                               ; preds = %_Py_NewRef.exit
  %17 = add nsw i32 %15, -1
  store i32 %17, ptr %.09, align 8, !tbaa !16
  %18 = icmp eq i32 %17, 0
  br i1 %18, label %19, label %Py_DECREF.exit

19:                                               ; preds = %16
  tail call void @_Py_Dealloc(ptr noundef nonnull %.09) #13
  br label %Py_DECREF.exit

Py_DECREF.exit:                                   ; preds = %19, %16, %_Py_NewRef.exit, %6
  %.0.shrunk = phi i1 [ false, %6 ], [ %14, %_Py_NewRef.exit ], [ %14, %16 ], [ %14, %19 ]
  %.0 = zext i1 %.0.shrunk to i32
  ret i32 %.0
}